target datalayout = "e-m:e-p270:32:32-p271:32:32-p272:64:64-i64:64-i128:128-f80:128-n8:16:32:64-S128"
target triple = "x86_64-pc-linux-gnu"

%struct.Map_NodeStruct_t_ = type { ptr, ptr, i32, i32, i32, i32, [3 x i32], [3 x float], float, ptr, ptr, ptr, ptr, [2 x %struct.Map_TimeStruct_t_], [2 x %struct.Map_TimeStruct_t_], [2 x ptr], ptr, ptr, ptr }
%struct.Map_TimeStruct_t_ = type { float, float, float }
%struct.Map_CutStruct_t_ = type { ptr, ptr, ptr, [6 x ptr], i32, i8, i8, i8, i8, [2 x %struct.Map_MatchStruct_t_] }
%struct.Map_MatchStruct_t_ = type { ptr, i32, i32, ptr, %struct.Map_TimeStruct_t_, float }
%struct.Map_SuperStruct_t_ = type { i32, i32, [4 x i8], i32, [6 x ptr], ptr, [2 x i32], [6 x %struct.Map_TimeStruct_t_], [6 x %struct.Map_TimeStruct_t_], %struct.Map_TimeStruct_t_, float, ptr, ptr }

; Function Attrs: nounwind uwtable
define i32 @Map_MappingNodeIsViolator(ptr noundef %0, ptr noundef %1, i32 noundef %2) #0 {
  %4 = alloca ptr, align 8
  %5 = alloca ptr, align 8
  %6 = alloca i32, align 4
  store ptr %0, ptr %4, align 8, !tbaa !3
  store ptr %1, ptr %5, align 8, !tbaa !66
  store i32 %2, ptr %6, align 4, !tbaa !10
  %7 = load ptr, ptr %4, align 8, !tbaa !3
  %8 = getelementptr inbounds nuw %struct.Map_NodeStruct_t_, ptr %7, i32 0, i32 6
  %9 = load i32, ptr %6, align 4, !tbaa !10
  %10 = sext i32 %9 to i64
  %11 = getelementptr inbounds [3 x i32], ptr %8, i64 0, i64 %10
  %12 = load i32, ptr %11, align 4, !tbaa !10
  %13 = load ptr, ptr %5, align 8, !tbaa !66
  %14 = getelementptr inbounds nuw %struct.Map_CutStruct_t_, ptr %13, i32 0, i32 9
  %15 = load i32, ptr %6, align 4, !tbaa !10
  %16 = sext i32 %15 to i64
  %17 = getelementptr inbounds [2 x %struct.Map_MatchStruct_t_], ptr %14, i64 0, i64 %16
  %18 = getelementptr inbounds nuw %struct.Map_MatchStruct_t_, ptr %17, i32 0, i32 3
  %19 = load ptr, ptr %18, align 8, !tbaa !67
  %20 = getelementptr inbounds nuw %struct.Map_SuperStruct_t_, ptr %19, i32 0, i32 1
  %21 = load i32, ptr %20, align 4
  %22 = lshr i32 %21, 8
  %23 = and i32 %22, 15
  %24 = icmp sgt i32 %12, %23
  %25 = zext i1 %24 to i32
  ret i32 %25
}