; Function Attrs: mustprogress nofree norecurse nosync nounwind willreturn memory(read, inaccessiblemem: none) uwtable
define range(i32 0, 2) i32 @Map_MappingNodeIsViolator(ptr noundef readonly captures(none) %0, ptr noundef readonly captures(none) %1, i32 noundef %2) local_unnamed_addr #8 {
  %4 = getelementptr inbounds nuw i8, ptr %0, i64 32
  %5 = sext i32 %2 to i64
  %6 = getelementptr inbounds [3 x i32], ptr %4, i64 0, i64 %5
  %7 = load i32, ptr %6, align 4, !tbaa !39
  %.idx = mul nsw i64 %5, 40
  %8 = getelementptr i8, ptr %1, i64 96
  %9 = getelementptr i8, ptr %8, i64 %.idx
  %10 = load ptr, ptr %9, align 8, !tbaa !63
  %11 = getelementptr inbounds nuw i8, ptr %10, i64 4
  %12 = load i32, ptr %11, align 4
  %13 = lshr i32 %12, 8
  %14 = and i32 %13, 15
  %15 = icmp sgt i32 %7, %14
  %16 = zext i1 %15 to i32
  ret i32 %16
}